; ModuleID = '53/1397.c'
source_filename = "53/1397.c"
target datalayout = "e-m:e-p270:32:32-p271:32:32-p272:64:64-i64:64-f80:128-n8:16:32:64-S128"
target triple = "x86_64-pc-linux-gnu"

@.str = private unnamed_addr constant [3 x i8] c"%d\00", align 1
@.str.1 = private unnamed_addr constant [4 x i8] c",%d\00", align 1

; Function Attrs: noinline nounwind uwtable
define dso_local i32 @main() #0 {
  %1 = alloca i32, align 4
  %2 = alloca i32, align 4
  %3 = alloca i32, align 4
  %4 = alloca i32, align 4
  %5 = alloca [10000 x i32], align 16
  store i32 0, i32* %1, align 4
  store i32 1, i32* %2, align 4
  br label %6

6:                                                ; preds = %13, %0
  %7 = load i32, i32* %2, align 4
  %8 = icmp sle i32 %7, 10000
  br i1 %8, label %9, label %16

9:                                                ; preds = %6
  %10 = load i32, i32* %2, align 4
  %11 = sext i32 %10 to i64
  %12 = getelementptr inbounds [10000 x i32], [10000 x i32]* %5, i64 0, i64 %11
  store i32 0, i32* %12, align 4
  br label %13

13:                                               ; preds = %9
  %14 = load i32, i32* %2, align 4
  %15 = add nsw i32 %14, 1
  store i32 %15, i32* %2, align 4
  br label %6

16:                                               ; preds = %6
  %17 = call i32 (i8*, ...) @__isoc99_scanf(i8* getelementptr inbounds ([3 x i8], [3 x i8]* @.str, i64 0, i64 0), i32* %4)
  store i32 1, i32* %2, align 4
  br label %18

18:                                               ; preds = %43, %16
  %19 = load i32, i32* %2, align 4
  %20 = load i32, i32* %4, align 4
  %21 = icmp sle i32 %19, %20
  br i1 %21, label %22, label %46

22:                                               ; preds = %18
  %23 = call i32 (i8*, ...) @__isoc99_scanf(i8* getelementptr inbounds ([3 x i8], [3 x i8]* @.str, i64 0, i64 0), i32* %3)
  %24 = load i32, i32* %3, align 4
  %25 = sext i32 %24 to i64
  %26 = getelementptr inbounds [10000 x i32], [10000 x i32]* %5, i64 0, i64 %25
  %27 = load i32, i32* %26, align 4
  %28 = icmp eq i32 %27, 0
  br i1 %28, label %29, label %42

29:                                               ; preds = %22
  %30 = load i32, i32* %3, align 4
  %31 = sext i32 %30 to i64
  %32 = getelementptr inbounds [10000 x i32], [10000 x i32]* %5, i64 0, i64 %31
  store i32 1, i32* %32, align 4
  %33 = load i32, i32* %2, align 4
  %34 = icmp eq i32 %33, 1
  br i1 %34, label %35, label %38

35:                                               ; preds = %29
  %36 = load i32, i32* %3, align 4
  %37 = call i32 (i8*, ...) @printf(i8* getelementptr inbounds ([3 x i8], [3 x i8]* @.str, i64 0, i64 0), i32 %36)
  br label %41

38:                                               ; preds = %29
  %39 = load i32, i32* %3, align 4
  %40 = call i32 (i8*, ...) @printf(i8* getelementptr inbounds ([4 x i8], [4 x i8]* @.str.1, i64 0, i64 0), i32 %39)
  br label %41

41:                                               ; preds = %38, %35
  br label %42

42:                                               ; preds = %41, %22
  br label %43

43:                                               ; preds = %42
  %44 = load i32, i32* %2, align 4
  %45 = add nsw i32 %44, 1
  store i32 %45, i32* %2, align 4
  br label %18

46:                                               ; preds = %18
  ret i32 0
}

declare dso_local i32 @__isoc99_scanf(i8*, ...) #1

declare dso_local i32 @printf(i8*, ...) #1


!llvm.module.flags = !{!0}
!llvm.ident = !{!1}

!0 = !{i32 1, !"wchar_size", i32 4}
!1 = !{!"clang version 10.0.0-4ubuntu1 "}
